; Function Attrs: mustprogress uwtable
define ptr @udatpg_getPatternForSkeleton_77(ptr noundef %0, ptr noundef %1, i32 noundef %2, ptr noundef writeonly %3) local_unnamed_addr #0 personality ptr @__gxx_personality_v0 {
  %5 = alloca %"class.icu_77::UnicodeString", align 8
  %6 = alloca %"class.icu_77::ConstChar16Ptr", align 8
  call void @llvm.lifetime.start.p0(i64 64, ptr nonnull %5) #5
  %.lobit = lshr i32 %2, 31
  %7 = trunc nuw nsw i32 %.lobit to i8
  store ptr %1, ptr %6, align 8, !tbaa !9
  invoke void @_ZN6icu_7713UnicodeStringC1EaNS_14ConstChar16PtrEi(ptr noundef nonnull align 8 dereferenceable(64) %5, i8 noundef signext %7, ptr noundef nonnull %6, i32 noundef %2)
          to label %8 unwind label %21

8:                                                ; preds = %4
  %9 = load ptr, ptr %6, align 8, !tbaa !9
  call void asm sideeffect "", "rm,~{memory},~{dirflag},~{fpsr},~{flags}"(ptr %9) #5, !srcloc !13
  %10 = invoke noundef nonnull align 8 dereferenceable(64) ptr @_ZNK6icu_7724DateTimePatternGenerator21getPatternForSkeletonERKNS_13UnicodeStringE(ptr noundef nonnull align 8 dereferenceable(4796) %0, ptr noundef nonnull align 8 dereferenceable(64) %5)
          to label %11 unwind label %24

11:                                               ; preds = %8
  %.not = icmp eq ptr %3, null
  br i1 %.not, label %26, label %12

12:                                               ; preds = %11
  %13 = getelementptr inbounds nuw i8, ptr %10, i64 8
  %14 = load i16, ptr %13, align 8, !tbaa !17
  %15 = icmp slt i16 %14, 0
  %16 = ashr i16 %14, 5
  %17 = sext i16 %16 to i32
  %18 = getelementptr inbounds nuw i8, ptr %10, i64 12
  %19 = load i32, ptr %18, align 4
  %20 = select i1 %15, i32 %19, i32 %17
  store i32 %20, ptr %3, align 4, !tbaa !18
  br label %26

21:                                               ; preds = %4
  %22 = landingpad { ptr, i32 }
          cleanup
  %23 = load ptr, ptr %6, align 8, !tbaa !9
  call void asm sideeffect "", "rm,~{memory},~{dirflag},~{fpsr},~{flags}"(ptr %23) #5, !srcloc !13
  br label %37

24:                                               ; preds = %8
  %25 = landingpad { ptr, i32 }
          cleanup
  call void @_ZN6icu_7713UnicodeStringD1Ev(ptr noundef nonnull align 8 dereferenceable(64) %5) #5
  br label %37

26:                                               ; preds = %12, %11
  %27 = getelementptr inbounds nuw i8, ptr %10, i64 8
  %28 = load i16, ptr %27, align 8, !tbaa !17
  %29 = and i16 %28, 17
  %.not.i = icmp eq i16 %29, 0
  br i1 %.not.i, label %30, label %_ZNK6icu_7713UnicodeString9getBufferEv.exit

30:                                               ; preds = %26
  %31 = and i16 %28, 2
  %.not2.i = icmp eq i16 %31, 0
  br i1 %.not2.i, label %34, label %32

32:                                               ; preds = %30
  %33 = getelementptr inbounds nuw i8, ptr %10, i64 10
  br label %_ZNK6icu_7713UnicodeString9getBufferEv.exit

34:                                               ; preds = %30
  %35 = getelementptr inbounds nuw i8, ptr %10, i64 24
  %36 = load ptr, ptr %35, align 8, !tbaa !17
  br label %_ZNK6icu_7713UnicodeString9getBufferEv.exit

_ZNK6icu_7713UnicodeString9getBufferEv.exit:      ; preds = %26, %32, %34
  %.0.i = phi ptr [ %33, %32 ], [ %36, %34 ], [ null, %26 ]
  call void @_ZN6icu_7713UnicodeStringD1Ev(ptr noundef nonnull align 8 dereferenceable(64) %5) #5
  call void @llvm.lifetime.end.p0(i64 64, ptr nonnull %5) #5
  ret ptr %.0.i

37:                                               ; preds = %24, %21
  %.pn = phi { ptr, i32 } [ %25, %24 ], [ %22, %21 ]
  call void @llvm.lifetime.end.p0(i64 64, ptr nonnull %5) #5
  resume { ptr, i32 } %.pn
}